cnumpy.core.multiarray
_reconstruct
p0
(cnumpy
ndarray
p1
(I0
tp2
S'b'
p3
tp4
Rp5
(I1
(I2326
tp6
cnumpy
dtype
p7
(S'S8'
p8
I0
I1
tp9
Rp10
(I3
S'|'
p11
NNNI8
I1
I0
tp12
bI00
S'C0000M04C0000M08C0000M12C0000M16C0000M20C0000M24C0000M28C0000M32C0000M36C0000M40C0000P00C0000P04C0000P08C0000P12C0000P16C0000P20C0000P24C0000P28C0000P32C0000P36C0000P40C0000P44C0000P48C0000P52C0000P56C0000P60C0000P64C0000P68C0000P72C0000P76C0000P80C0000P84C0000P88C0016M04C0016M08C0016M12C0016M16C0016M20C0016M24C0016M28C0016P00C0016P04C0016P08C0016P12C0016P16C0016P20C0016P24C0016P28C0018M32C0018M36C0018P32C0018P36C0020M40C0020P40C0020P44C0020P48C0024P52C0024P56C0030P60C0030P64C0032M04C0032M08C0032M12C0032M16C0032M20C0032M24C0032M28C0032P00C0032P04C0032P08C0032P12C0032P16C0032P20C0032P24C0032P28C0036M32C0036M36C0036P32C0036P36C0036P68C0040M40C0040P40C0040P44C0040P48C0045P72C0045P76C0048M04C0048M08C0048M12C0048M16C0048M20C0048M24C0048M28C0048P00C0048P04C0048P08C0048P12C0048P16C0048P20C0048P24C0048P28C0048P52C0048P56C0054M32C0054M36C0054P32C0054P36C0100M40C0100P40C0100P44C0100P48C0100P60C0100P64C0100P80C0104M04C0104M08C0104M12C0104M16C0104M20C0104M24C0104M28C0104P00C0104P04C0104P08C0104P12C0104P16C0104P20C0104P24C0104P28C0112M32C0112M36C0112P32C0112P36C0112P52C0112P56C0112P68C0120M04C0120M08C0120M12C0120M16C0120M20C0120M24C0120M28C0120M40C0120P00C0120P04C0120P08C0120P12C0120P16C0120P20C0120P24C0120P28C0120P40C0120P44C0120P48C0130M32C0130M36C0130P32C0130P36C0130P60C0130P64C0130P72C0130P76C0130P84C0136M04C0136M08C0136M12C0136M16C0136M20C0136M24C0136M28C0136P00C0136P04C0136P08C0136P12C0136P16C0136P20C0136P24C0136P28C0136P52C0136P56C0140M40C0140P40C0140P44C0140P48C0148M32C0148M36C0148P32C0148P36C0148P68C0152M04C0152M08C0152M12C0152M16C0152M20C0152M24C0152M28C0152P00C0152P04C0152P08C0152P12C0152P16C0152P20C0152P24C0152P28C0200M40C0200P40C0200P44C0200P48C0200P52C0200P56C0200P60C0200P64C0200P80C0206M32C0206M36C0206P32C0206P36C0208M04C0208M08C0208M12C0208M16C0208M20C0208M24C0208M28C0208P00C0208P04C0208P08C0208P12C0208P16C0208P20C0208P24C0208P28C0215P72C0215P76C0220M40C0220P40C0220P44C0220P48C0224M04C0224M08C0224M12C0224M16C0224M20C0224M24C0224M28C0224M32C0224M36C0224P00C0224P04C0224P08C0224P12C0224P16C0224P20C0224P24C0224P28C0224P32C0224P36C0224P52C0224P56C0224P68C0230P60C0230P64C0240M04C0240M08C0240M12C0240M16C0240M20C0240M24C0240M28C0240M40C0240P00C0240P04C0240P08C0240P12C0240P16C0240P20C0240P24C0240P28C0240P40C0240P44C0240P48C0242M32C0242M36C0242P32C0242P36C0248P52C0248P56C0256M04C0256M08C0256M12C0256M16C0256M20C0256M24C0256M28C0256P00C0256P04C0256P08C0256P12C0256P16C0256P20C0256P24C0256P28C0300M32C0300M36C0300M40C0300P32C0300P36C0300P40C0300P44C0300P48C0300P60C0300P64C0300P68C0300P72C0300P76C0300P80C0300P84C0300P88C0312M04C0312M08C0312M12C0312M16C0312M20C0312M24C0312M28C0312P00C0312P04C0312P08C0312P12C0312P16C0312P20C0312P24C0312P28C0312P52C0312P56C0318M32C0318M36C0318P32C0318P36C0320M40C0320P40C0320P44C0320P48C0328M04C0328M08C0328M12C0328M16C0328M20C0328M24C0328M28C0328P00C0328P04C0328P08C0328P12C0328P16C0328P20C0328P24C0328P28C0330P60C0330P64C0336M32C0336M36C0336P32C0336P36C0336P52C0336P56C0336P68C0340M40C0340P40C0340P44C0340P48C0344M04C0344M08C0344M12C0344M16C0344M20C0344M24C0344M28C0344P00C0344P04C0344P08C0344P12C0344P16C0344P20C0344P24C0344P28C0345P72C0345P76C0354M32C0354M36C0354P32C0354P36C0400M04C0400M08C0400M12C0400M16C0400M20C0400M24C0400M28C0400M40C0400P00C0400P04C0400P08C0400P12C0400P16C0400P20C0400P24C0400P28C0400P40C0400P44C0400P48C0400P52C0400P56C0400P60C0400P64C0400P80C0412M32C0412M36C0412P32C0412P36C0412P68C0416M04C0416M08C0416M12C0416M16C0416M20C0416M24C0416M28C0416P00C0416P04C0416P08C0416P12C0416P16C0416P20C0416P24C0416P28C0420M40C0420P40C0420P44C0420P48C0424P52C0424P56C0430M32C0430M36C0430P32C0430P36C0430P60C0430P64C0430P72C0430P76C0430P84C0432M04C0432M08C0432M12C0432M16C0432M20C0432M24C0432M28C0432P00C0432P04C0432P08C0432P12C0432P16C0432P20C0432P24C0432P28C0440M40C0440P40C0440P44C0440P48C0448M04C0448M08C0448M12C0448M16C0448M20C0448M24C0448M28C0448M32C0448M36C0448P00C0448P04C0448P08C0448P12C0448P16C0448P20C0448P24C0448P28C0448P32C0448P36C0448P52C0448P56C0448P68C0500M40C0500P40C0500P44C0500P48C0500P60C0500P64C0500P80C0504M04C0504M08C0504M12C0504M16C0504M20C0504M24C0504M28C0504P00C0504P04C0504P08C0504P12C0504P16C0504P20C0504P24C0504P28C0506M32C0506M36C0506P32C0506P36C0512P52C0512P56C0515P72C0515P76C0520M04C0520M08C0520M12C0520M16C0520M20C0520M24C0520M28C0520M40C0520P00C0520P04C0520P08C0520P12C0520P16C0520P20C0520P24C0520P28C0520P40C0520P44C0520P48C0524M32C0524M36C0524P32C0524P36C0524P68C0530P60C0530P64C0536M04C0536M08C0536M12C0536M16C0536M20C0536M24C0536M28C0536P00C0536P04C0536P08C0536P12C0536P16C0536P20C0536P24C0536P28C0536P52C0536P56C0540M40C0540P40C0540P44C0540P48C0542M32C0542M36C0542P32C0542P36C0552M04C0552M08C0552M12C0552M16C0552M20C0552M24C0552M28C0552P00C0552P04C0552P08C0552P12C0552P16C0552P20C0552P24C0552P28C0600M32C0600M36C0600M40C0600P32C0600P36C0600P40C0600P44C0600P48C0600P52C0600P56C0600P60C0600P64C0600P68C0600P72C0600P76C0600P80C0600P84C0600P88C0608M04C0608M08C0608M12C0608M16C0608M20C0608M24C0608M28C0608P00C0608P04C0608P08C0608P12C0608P16C0608P20C0608P24C0608P28C0618M32C0618M36C0618P32C0618P36C0620M40C0620P40C0620P44C0620P48C0624M04C0624M08C0624M12C0624M16C0624M20C0624M24C0624M28C0624P00C0624P04C0624P08C0624P12C0624P16C0624P20C0624P24C0624P28C0624P52C0624P56C0630P60C0630P64C0636M32C0636M36C0636P32C0636P36C0636P68C0640M04C0640M08C0640M12C0640M16C0640M20C0640M24C0640M28C0640M40C0640P00C0640P04C0640P08C0640P12C0640P16C0640P20C0640P24C0640P28C0640P40C0640P44C0640P48C0645P72C0645P76C0648P52C0648P56C0654M32C0654M36C0654P32C0654P36C0656M04C0656M08C0656M12C0656M16C0656M20C0656M24C0656M28C0656P00C0656P04C0656P08C0656P12C0656P16C0656P20C0656P24C0656P28C0700M40C0700P40C0700P44C0700P48C0700P60C0700P64C0700P80C0712M04C0712M08C0712M12C0712M16C0712M20C0712M24C0712M28C0712M32C0712M36C0712P00C0712P04C0712P08C0712P12C0712P16C0712P20C0712P24C0712P28C0712P32C0712P36C0712P52C0712P56C0712P68C0720M40C0720P40C0720P44C0720P48C0728M04C0728M08C0728M12C0728M16C0728M20C0728M24C0728M28C0728P00C0728P04C0728P08C0728P12C0728P16C0728P20C0728P24C0728P28C0730M32C0730M36C0730P32C0730P36C0730P60C0730P64C0730P72C0730P76C0730P84C0736P52C0736P56C0740M40C0740P40C0740P44C0740P48C0744M04C0744M08C0744M12C0744M16C0744M20C0744M24C0744M28C0744P00C0744P04C0744P08C0744P12C0744P16C0744P20C0744P24C0744P28C0748M32C0748M36C0748P32C0748P36C0748P68C0800M04C0800M08C0800M12C0800M16C0800M20C0800M24C0800M28C0800M40C0800P00C0800P04C0800P08C0800P12C0800P16C0800P20C0800P24C0800P28C0800P40C0800P44C0800P48C0800P52C0800P56C0800P60C0800P64C0800P80C0806M32C0806M36C0806P32C0806P36C0815P72C0815P76C0816M04C0816M08C0816M12C0816M16C0816M20C0816M24C0816M28C0816P00C0816P04C0816P08C0816P12C0816P16C0816P20C0816P24C0816P28C0820M40C0820P40C0820P44C0820P48C0824M32C0824M36C0824P32C0824P36C0824P52C0824P56C0824P68C0830P60C0830P64C0832M04C0832M08C0832M12C0832M16C0832M20C0832M24C0832M28C0832P00C0832P04C0832P08C0832P12C0832P16C0832P20C0832P24C0832P28C0840M40C0840P40C0840P44C0840P48C0842M32C0842M36C0842P32C0842P36C0848M04C0848M08C0848M12C0848M16C0848M20C0848M24C0848M28C0848P00C0848P04C0848P08C0848P12C0848P16C0848P20C0848P24C0848P28C0848P52C0848P56C0900M32C0900M36C0900M40C0900P32C0900P36C0900P40C0900P44C0900P48C0900P60C0900P64C0900P68C0900P72C0900P76C0900P80C0900P84C0900P88C0904M04C0904M08C0904M12C0904M16C0904M20C0904M24C0904M28C0904P00C0904P04C0904P08C0904P12C0904P16C0904P20C0904P24C0904P28C0912P52C0912P56C0918M32C0918M36C0918P32C0918P36C0920M04C0920M08C0920M12C0920M16C0920M20C0920M24C0920M28C0920M40C0920P00C0920P04C0920P08C0920P12C0920P16C0920P20C0920P24C0920P28C0920P40C0920P44C0920P48C0930P60C0930P64C0936M04C0936M08C0936M12C0936M16C0936M20C0936M24C0936M28C0936M32C0936M36C0936P00C0936P04C0936P08C0936P12C0936P16C0936P20C0936P24C0936P28C0936P32C0936P36C0936P52C0936P56C0936P68C0940M40C0940P40C0940P44C0940P48C0945P72C0945P76C0952M04C0952M08C0952M12C0952M16C0952M20C0952M24C0952M28C0952P00C0952P04C0952P08C0952P12C0952P16C0952P20C0952P24C0952P28C0954M32C0954M36C0954P32C0954P36C1000M40C1000P40C1000P44C1000P48C1000P52C1000P56C1000P60C1000P64C1000P80C1008M04C1008M08C1008M12C1008M16C1008M20C1008M24C1008M28C1008P00C1008P04C1008P08C1008P12C1008P16C1008P20C1008P24C1008P28C1012M32C1012M36C1012P32C1012P36C1012P68C1020M40C1020P40C1020P44C1020P48C1024M04C1024M08C1024M12C1024M16C1024M20C1024M24C1024M28C1024P00C1024P04C1024P08C1024P12C1024P16C1024P20C1024P24C1024P28C1024P52C1024P56C1030M32C1030M36C1030P32C1030P36C1030P60C1030P64C1030P72C1030P76C1030P84C1040M04C1040M08C1040M12C1040M16C1040M20C1040M24C1040M28C1040M40C1040P00C1040P04C1040P08C1040P12C1040P16C1040P20C1040P24C1040P28C1040P40C1040P44C1040P48C1048M32C1048M36C1048P32C1048P36C1048P52C1048P56C1048P68C1056M04C1056M08C1056M12C1056M16C1056M20C1056M24C1056M28C1056P00C1056P04C1056P08C1056P12C1056P16C1056P20C1056P24C1056P28C1100M40C1100P40C1100P44C1100P48C1100P60C1100P64C1100P80C1106M32C1106M36C1106P32C1106P36C1112M04C1112M08C1112M12C1112M16C1112M20C1112M24C1112M28C1112P00C1112P04C1112P08C1112P12C1112P16C1112P20C1112P24C1112P28C1112P52C1112P56C1115P72C1115P76C1120M40C1120P40C1120P44C1120P48C1124M32C1124M36C1124P32C1124P36C1124P68C1128M04C1128M08C1128M12C1128M16C1128M20C1128M24C1128M28C1128P00C1128P04C1128P08C1128P12C1128P16C1128P20C1128P24C1128P28C1130P60C1130P64C1136P52C1136P56C1140M40C1140P40C1140P44C1140P48C1142M32C1142M36C1142P32C1142P36C1144M04C1144M08C1144M12C1144M16C1144M20C1144M24C1144M28C1144P00C1144P04C1144P08C1144P12C1144P16C1144P20C1144P24C1144P28C1200M04C1200M08C1200M12C1200M16C1200M20C1200M24C1200M28C1200M32C1200M36C1200M40C1200P00C1200P04C1200P08C1200P12C1200P16C1200P20C1200P24C1200P28C1200P32C1200P36C1200P40C1200P44C1200P48C1200P52C1200P56C1200P60C1200P64C1200P68C1200P72C1200P76C1200P80C1200P84C1200P88C1216M04C1216M08C1216M12C1216M16C1216M20C1216M24C1216M28C1216P00C1216P04C1216P08C1216P12C1216P16C1216P20C1216P24C1216P28C1218M32C1218M36C1218P32C1218P36C1220M40C1220P40C1220P44C1220P48C1224P52C1224P56C1230P60C1230P64C1232M04C1232M08C1232M12C1232M16C1232M20C1232M24C1232M28C1232P00C1232P04C1232P08C1232P12C1232P16C1232P20C1232P24C1232P28C1236M32C1236M36C1236P32C1236P36C1236P68C1240M40C1240P40C1240P44C1240P48C1245P72C1245P76C1248M04C1248M08C1248M12C1248M16C1248M20C1248M24C1248M28C1248P00C1248P04C1248P08C1248P12C1248P16C1248P20C1248P24C1248P28C1248P52C1248P56C1254M32C1254M36C1254P32C1254P36C1300M40C1300P40C1300P44C1300P48C1300P60C1300P64C1300P80C1304M04C1304M08C1304M12C1304M16C1304M20C1304M24C1304M28C1304P00C1304P04C1304P08C1304P12C1304P16C1304P20C1304P24C1304P28C1312M32C1312M36C1312P32C1312P36C1312P52C1312P56C1312P68C1320M04C1320M08C1320M12C1320M16C1320M20C1320M24C1320M28C1320M40C1320P00C1320P04C1320P08C1320P12C1320P16C1320P20C1320P24C1320P28C1320P40C1320P44C1320P48C1330M32C1330M36C1330P32C1330P36C1330P60C1330P64C1330P72C1330P76C1330P84C1336M04C1336M08C1336M12C1336M16C1336M20C1336M24C1336M28C1336P00C1336P04C1336P08C1336P12C1336P16C1336P20C1336P24C1336P28C1336P52C1336P56C1340M40C1340P40C1340P44C1340P48C1348M32C1348M36C1348P32C1348P36C1348P68C1352M04C1352M08C1352M12C1352M16C1352M20C1352M24C1352M28C1352P00C1352P04C1352P08C1352P12C1352P16C1352P20C1352P24C1352P28C1400M40C1400P40C1400P44C1400P48C1400P52C1400P56C1400P60C1400P64C1400P80C1406M32C1406M36C1406P32C1406P36C1408M04C1408M08C1408M12C1408M16C1408M20C1408M24C1408M28C1408P00C1408P04C1408P08C1408P12C1408P16C1408P20C1408P24C1408P28C1415P72C1415P76C1420M40C1420P40C1420P44C1420P48C1424M04C1424M08C1424M12C1424M16C1424M20C1424M24C1424M28C1424M32C1424M36C1424P00C1424P04C1424P08C1424P12C1424P16C1424P20C1424P24C1424P28C1424P32C1424P36C1424P52C1424P56C1424P68C1430P60C1430P64C1440M04C1440M08C1440M12C1440M16C1440M20C1440M24C1440M28C1440M40C1440P00C1440P04C1440P08C1440P12C1440P16C1440P20C1440P24C1440P28C1440P40C1440P44C1440P48C1442M32C1442M36C1442P32C1442P36C1448P52C1448P56C1456M04C1456M08C1456M12C1456M16C1456M20C1456M24C1456M28C1456P00C1456P04C1456P08C1456P12C1456P16C1456P20C1456P24C1456P28C1500M32C1500M36C1500M40C1500P32C1500P36C1500P40C1500P44C1500P48C1500P60C1500P64C1500P68C1500P72C1500P76C1500P80C1500P84C1500P88C1512M04C1512M08C1512M12C1512M16C1512M20C1512M24C1512M28C1512P00C1512P04C1512P08C1512P12C1512P16C1512P20C1512P24C1512P28C1512P52C1512P56C1518M32C1518M36C1518P32C1518P36C1520M40C1520P40C1520P44C1520P48C1528M04C1528M08C1528M12C1528M16C1528M20C1528M24C1528M28C1528P00C1528P04C1528P08C1528P12C1528P16C1528P20C1528P24C1528P28C1530P60C1530P64C1536M32C1536M36C1536P32C1536P36C1536P52C1536P56C1536P68C1540M40C1540P40C1540P44C1540P48C1544M04C1544M08C1544M12C1544M16C1544M20C1544M24C1544M28C1544P00C1544P04C1544P08C1544P12C1544P16C1544P20C1544P24C1544P28C1545P72C1545P76C1554M32C1554M36C1554P32C1554P36C1600M04C1600M08C1600M12C1600M16C1600M20C1600M24C1600M28C1600M40C1600P00C1600P04C1600P08C1600P12C1600P16C1600P20C1600P24C1600P28C1600P40C1600P44C1600P48C1600P52C1600P56C1600P60C1600P64C1600P80C1612M32C1612M36C1612P32C1612P36C1612P68C1616M04C1616M08C1616M12C1616M16C1616M20C1616M24C1616M28C1616P00C1616P04C1616P08C1616P12C1616P16C1616P20C1616P24C1616P28C1620M40C1620P40C1620P44C1620P48C1624P52C1624P56C1630M32C1630M36C1630P32C1630P36C1630P60C1630P64C1630P72C1630P76C1630P84C1632M04C1632M08C1632M12C1632M16C1632M20C1632M24C1632M28C1632P00C1632P04C1632P08C1632P12C1632P16C1632P20C1632P24C1632P28C1640M40C1640P40C1640P44C1640P48C1648M04C1648M08C1648M12C1648M16C1648M20C1648M24C1648M28C1648M32C1648M36C1648P00C1648P04C1648P08C1648P12C1648P16C1648P20C1648P24C1648P28C1648P32C1648P36C1648P52C1648P56C1648P68C1700M40C1700P40C1700P44C1700P48C1700P60C1700P64C1700P80C1704M04C1704M08C1704M12C1704M16C1704M20C1704M24C1704M28C1704P00C1704P04C1704P08C1704P12C1704P16C1704P20C1704P24C1704P28C1706M32C1706M36C1706P32C1706P36C1712P52C1712P56C1715P72C1715P76C1720M04C1720M08C1720M12C1720M16C1720M20C1720M24C1720M28C1720M40C1720P00C1720P04C1720P08C1720P12C1720P16C1720P20C1720P24C1720P28C1720P40C1720P44C1720P48C1724M32C1724M36C1724P32C1724P36C1724P68C1730P60C1730P64C1736M04C1736M08C1736M12C1736M16C1736M20C1736M24C1736M28C1736P00C1736P04C1736P08C1736P12C1736P16C1736P20C1736P24C1736P28C1736P52C1736P56C1740M40C1740P40C1740P44C1740P48C1742M32C1742M36C1742P32C1742P36C1752M04C1752M08C1752M12C1752M16C1752M20C1752M24C1752M28C1752P00C1752P04C1752P08C1752P12C1752P16C1752P20C1752P24C1752P28C1800M32C1800M36C1800M40C1800P32C1800P36C1800P40C1800P44C1800P48C1800P52C1800P56C1800P60C1800P64C1800P68C1800P72C1800P76C1800P80C1800P84C1800P88C1808M04C1808M08C1808M12C1808M16C1808M20C1808M24C1808M28C1808P00C1808P04C1808P08C1808P12C1808P16C1808P20C1808P24C1808P28C1818M32C1818M36C1818P32C1818P36C1820M40C1820P40C1820P44C1820P48C1824M04C1824M08C1824M12C1824M16C1824M20C1824M24C1824M28C1824P00C1824P04C1824P08C1824P12C1824P16C1824P20C1824P24C1824P28C1824P52C1824P56C1830P60C1830P64C1836M32C1836M36C1836P32C1836P36C1836P68C1840M04C1840M08C1840M12C1840M16C1840M20C1840M24C1840M28C1840M40C1840P00C1840P04C1840P08C1840P12C1840P16C1840P20C1840P24C1840P28C1840P40C1840P44C1840P48C1845P72C1845P76C1848P52C1848P56C1854M32C1854M36C1854P32C1854P36C1856M04C1856M08C1856M12C1856M16C1856M20C1856M24C1856M28C1856P00C1856P04C1856P08C1856P12C1856P16C1856P20C1856P24C1856P28C1900M40C1900P40C1900P44C1900P48C1900P60C1900P64C1900P80C1912M04C1912M08C1912M12C1912M16C1912M20C1912M24C1912M28C1912M32C1912M36C1912P00C1912P04C1912P08C1912P12C1912P16C1912P20C1912P24C1912P28C1912P32C1912P36C1912P52C1912P56C1912P68C1920M40C1920P40C1920P44C1920P48C1928M04C1928M08C1928M12C1928M16C1928M20C1928M24C1928M28C1928P00C1928P04C1928P08C1928P12C1928P16C1928P20C1928P24C1928P28C1930M32C1930M36C1930P32C1930P36C1930P60C1930P64C1930P72C1930P76C1930P84C1936P52C1936P56C1940M40C1940P40C1940P44C1940P48C1944M04C1944M08C1944M12C1944M16C1944M20C1944M24C1944M28C1944P00C1944P04C1944P08C1944P12C1944P16C1944P20C1944P24C1944P28C1948M32C1948M36C1948P32C1948P36C1948P68C2000M04C2000M08C2000M12C2000M16C2000M20C2000M24C2000M28C2000M40C2000P00C2000P04C2000P08C2000P12C2000P16C2000P20C2000P24C2000P28C2000P40C2000P44C2000P48C2000P52C2000P56C2000P60C2000P64C2000P80C2006M32C2006M36C2006P32C2006P36C2015P72C2015P76C2016M04C2016M08C2016M12C2016M16C2016M20C2016M24C2016M28C2016P00C2016P04C2016P08C2016P12C2016P16C2016P20C2016P24C2016P28C2020M40C2020P40C2020P44C2020P48C2024M32C2024M36C2024P32C2024P36C2024P52C2024P56C2024P68C2030P60C2030P64C2032M04C2032M08C2032M12C2032M16C2032M20C2032M24C2032M28C2032P00C2032P04C2032P08C2032P12C2032P16C2032P20C2032P24C2032P28C2040M40C2040P40C2040P44C2040P48C2042M32C2042M36C2042P32C2042P36C2048M04C2048M08C2048M12C2048M16C2048M20C2048M24C2048M28C2048P00C2048P04C2048P08C2048P12C2048P16C2048P20C2048P24C2048P28C2048P52C2048P56C2100M32C2100M36C2100M40C2100P32C2100P36C2100P40C2100P44C2100P48C2100P60C2100P64C2100P68C2100P72C2100P76C2100P80C2100P84C2100P88C2104M04C2104M08C2104M12C2104M16C2104M20C2104M24C2104M28C2104P00C2104P04C2104P08C2104P12C2104P16C2104P20C2104P24C2104P28C2112P52C2112P56C2118M32C2118M36C2118P32C2118P36C2120M04C2120M08C2120M12C2120M16C2120M20C2120M24C2120M28C2120M40C2120P00C2120P04C2120P08C2120P12C2120P16C2120P20C2120P24C2120P28C2120P40C2120P44C2120P48C2130P60C2130P64C2136M04C2136M08C2136M12C2136M16C2136M20C2136M24C2136M28C2136M32C2136M36C2136P00C2136P04C2136P08C2136P12C2136P16C2136P20C2136P24C2136P28C2136P32C2136P36C2136P52C2136P56C2136P68C2140M40C2140P40C2140P44C2140P48C2145P72C2145P76C2152M04C2152M08C2152M12C2152M16C2152M20C2152M24C2152M28C2152P00C2152P04C2152P08C2152P12C2152P16C2152P20C2152P24C2152P28C2154M32C2154M36C2154P32C2154P36C2200M40C2200P40C2200P44C2200P48C2200P52C2200P56C2200P60C2200P64C2200P80C2208M04C2208M08C2208M12C2208M16C2208M20C2208M24C2208M28C2208P00C2208P04C2208P08C2208P12C2208P16C2208P20C2208P24C2208P28C2212M32C2212M36C2212P32C2212P36C2212P68C2220M40C2220P40C2220P44C2220P48C2224M04C2224M08C2224M12C2224M16C2224M20C2224M24C2224M28C2224P00C2224P04C2224P08C2224P12C2224P16C2224P20C2224P24C2224P28C2224P52C2224P56C2230M32C2230M36C2230P32C2230P36C2230P60C2230P64C2230P72C2230P76C2230P84C2240M04C2240M08C2240M12C2240M16C2240M20C2240M24C2240M28C2240M40C2240P00C2240P04C2240P08C2240P12C2240P16C2240P20C2240P24C2240P28C2240P40C2240P44C2240P48C2248M32C2248M36C2248P32C2248P36C2248P52C2248P56C2248P68C2256M04C2256M08C2256M12C2256M16C2256M20C2256M24C2256M28C2256P00C2256P04C2256P08C2256P12C2256P16C2256P20C2256P24C2256P28C2300M40C2300P40C2300P44C2300P48C2300P60C2300P64C2300P80C2306M32C2306M36C2306P32C2306P36C2312M04C2312M08C2312M12C2312M16C2312M20C2312M24C2312M28C2312P00C2312P04C2312P08C2312P12C2312P16C2312P20C2312P24C2312P28C2312P52C2312P56C2315P72C2315P76C2320M40C2320P40C2320P44C2320P48C2324M32C2324M36C2324P32C2324P36C2324P68C2328M04C2328M08C2328M12C2328M16C2328M20C2328M24C2328M28C2328P00C2328P04C2328P08C2328P12C2328P16C2328P20C2328P24C2328P28C2330P60C2330P64C2336P52C2336P56C2340M40C2340P40C2340P44C2340P48C2342M32C2342M36C2342P32C2342P36C2344M04C2344M08C2344M12C2344M16C2344M20C2344M24C2344M28C2344P00C2344P04C2344P08C2344P12C2344P16C2344P20C2344P24C2344P28'
p13
tp14
b.